target datalayout = "e-m:e-p270:32:32-p271:32:32-p272:64:64-i64:64-i128:128-f80:128-n8:16:32:64-S128"
target triple = "x86_64-pc-linux-gnu"

@cState = internal global i64 0, align 8
@i_new = internal global i64 0, align 8
@rb_cHash = external global i64, align 8

; Function Attrs: nounwind sspstrong uwtable
define internal i64 @cState_from_state_s(i64 noundef %0, i64 noundef %1) #0 {
  %3 = alloca i64, align 8
  %4 = alloca i64, align 8
  %5 = alloca i64, align 8
  store i64 %0, ptr %4, align 8, !tbaa !6
  store i64 %1, ptr %5, align 8, !tbaa !6
  %6 = load i64, ptr %5, align 8, !tbaa !6
  %7 = load i64, ptr %4, align 8, !tbaa !6
  %8 = call i64 @rb_obj_is_kind_of(i64 noundef %6, i64 noundef %7)
  %9 = icmp ne i64 %8, 0
  br i1 %9, label %10, label %12

10:                                               ; preds = %2
  %11 = load i64, ptr %5, align 8, !tbaa !6
  store i64 %11, ptr %3, align 8
  br label %25

12:                                               ; preds = %2
  %13 = load i64, ptr %5, align 8, !tbaa !6
  %14 = load i64, ptr @rb_cHash, align 8, !tbaa !6
  %15 = call i64 @rb_obj_is_kind_of(i64 noundef %13, i64 noundef %14)
  %16 = icmp ne i64 %15, 0
  br i1 %16, label %17, label %22

17:                                               ; preds = %12
  %18 = load i64, ptr %4, align 8, !tbaa !6
  %19 = load i64, ptr @i_new, align 8, !tbaa !6
  %20 = load i64, ptr %5, align 8, !tbaa !6
  %21 = call i64 (i64, i64, i32, ...) @rb_funcall(i64 noundef %18, i64 noundef %19, i32 noundef 1, i64 noundef %20)
  store i64 %21, ptr %3, align 8
  br label %25

22:                                               ; preds = %12
  %23 = load i64, ptr @cState, align 8, !tbaa !6
  %24 = call i64 @rb_class_new_instance(i32 noundef 0, ptr noundef null, i64 noundef %23)
  store i64 %24, ptr %3, align 8
  br label %25

25:                                               ; preds = %22, %17, %10
  %26 = load i64, ptr %3, align 8
  ret i64 %26
}