; Function Attrs: nounwind sspstrong uwtable
define internal i64 @cState_from_state_s(i64 noundef %0, i64 noundef %1) #0 {
  %3 = tail call i64 @rb_obj_is_kind_of(i64 noundef %1, i64 noundef %0) #22
  %.not = icmp eq i64 %3, 0
  br i1 %.not, label %4, label %13

4:                                                ; preds = %2
  %5 = load i64, ptr @rb_cHash, align 8, !tbaa !6
  %6 = tail call i64 @rb_obj_is_kind_of(i64 noundef %1, i64 noundef %5) #22
  %.not7 = icmp eq i64 %6, 0
  br i1 %.not7, label %10, label %7

7:                                                ; preds = %4
  %8 = load i64, ptr @i_new, align 8, !tbaa !6
  %9 = tail call i64 (i64, i64, i32, ...) @rb_funcall(i64 noundef %0, i64 noundef %8, i32 noundef 1, i64 noundef %1) #22
  br label %13

10:                                               ; preds = %4
  %11 = load i64, ptr @cState, align 8, !tbaa !6
  %12 = tail call i64 @rb_class_new_instance(i32 noundef 0, ptr noundef null, i64 noundef %11) #22
  br label %13

13:                                               ; preds = %2, %10, %7
  %.0 = phi i64 [ %9, %7 ], [ %12, %10 ], [ %1, %2 ]
  ret i64 %.0
}